target datalayout = "e-m:e-p270:32:32-p271:32:32-p272:64:64-i64:64-i128:128-f80:128-n8:16:32:64-S128"
target triple = "x86_64-pc-linux-gnu"

%struct.te_ctx_s = type { i8, ptr, ptr, ptr, ptr }
%struct.tsd_s = type { i8, i8, i8, i64, i64, i64, i64, i64, i64, i64, i64, i64, i64, i64, i64, ptr, i64, i64, i64, ptr, ptr, %struct.ticker_geom_s, i8, %struct.tsd_binshards_s, %struct.tsd_link_t, i8, %struct.peak_s, %struct.activity_callback_thunk_s, %struct.tcache_slow_s, %struct.rtree_ctx_s, %struct.atomic_u8_t, i64, i64, i64, i64, %struct.tcache_s, %struct.witness_tsd_s }
%struct.ticker_geom_s = type { i32, i32 }
%struct.tsd_binshards_s = type { [36 x i8] }
%struct.tsd_link_t = type { ptr, ptr }
%struct.peak_s = type { i64, i64 }
%struct.activity_callback_thunk_s = type { ptr, ptr }
%struct.tcache_slow_s = type { %struct.anon, %struct.cache_bin_array_descriptor_s, ptr, i32, i32, [36 x i8], [36 x i8], [36 x i8], ptr, ptr }
%struct.anon = type { ptr, ptr }
%struct.cache_bin_array_descriptor_s = type { %struct.anon.0, ptr }
%struct.anon.0 = type { ptr, ptr }
%struct.rtree_ctx_s = type { [16 x %struct.rtree_ctx_cache_elm_s], [8 x %struct.rtree_ctx_cache_elm_s] }
%struct.rtree_ctx_cache_elm_s = type { i64, ptr }
%struct.atomic_u8_t = type { i8 }
%struct.tcache_s = type { ptr, [73 x %struct.cache_bin_s] }
%struct.cache_bin_s = type { ptr, %struct.cache_bin_stats_s, i16, i16, i16, %struct.cache_bin_info_s }
%struct.cache_bin_stats_s = type { i64 }
%struct.cache_bin_info_s = type { i16 }
%struct.witness_tsd_s = type { %struct.witness_list_t, i8 }
%struct.witness_list_t = type { ptr }

; Function Attrs: alwaysinline nounwind uwtable
define internal ptr @tsd_thread_deallocated_next_eventp_get_unsafe(ptr noundef %0) #2 {
  %2 = alloca ptr, align 8
  store ptr %0, ptr %2, align 8, !tbaa !3
  %3 = load ptr, ptr %2, align 8, !tbaa !3
  %4 = getelementptr inbounds nuw %struct.tsd_s, ptr %3, i32 0, i32 6
  ret ptr %4
}

; Function Attrs: alwaysinline nounwind uwtable
define internal ptr @tsd_thread_deallocated_last_eventp_get_unsafe(ptr noundef %0) #2 {
  %2 = alloca ptr, align 8
  store ptr %0, ptr %2, align 8, !tbaa !3
  %3 = load ptr, ptr %2, align 8, !tbaa !3
  %4 = getelementptr inbounds nuw %struct.tsd_s, ptr %3, i32 0, i32 5
  ret ptr %4
}

; Function Attrs: alwaysinline nounwind uwtable
define internal ptr @tsd_thread_deallocatedp_get_unsafe(ptr noundef %0) #2 {
  %2 = alloca ptr, align 8
  store ptr %0, ptr %2, align 8, !tbaa !3
  %3 = load ptr, ptr %2, align 8, !tbaa !3
  %4 = getelementptr inbounds nuw %struct.tsd_s, ptr %3, i32 0, i32 33
  ret ptr %4
}

; Function Attrs: alwaysinline nounwind uwtable
define internal ptr @tsd_thread_allocated_next_eventp_get_unsafe(ptr noundef %0) #2 {
  %2 = alloca ptr, align 8
  store ptr %0, ptr %2, align 8, !tbaa !3
  %3 = load ptr, ptr %2, align 8, !tbaa !3
  %4 = getelementptr inbounds nuw %struct.tsd_s, ptr %3, i32 0, i32 4
  ret ptr %4
}

; Function Attrs: alwaysinline nounwind uwtable
define internal ptr @tsd_thread_allocated_last_eventp_get_unsafe(ptr noundef %0) #2 {
  %2 = alloca ptr, align 8
  store ptr %0, ptr %2, align 8, !tbaa !3
  %3 = load ptr, ptr %2, align 8, !tbaa !3
  %4 = getelementptr inbounds nuw %struct.tsd_s, ptr %3, i32 0, i32 3
  ret ptr %4
}

; Function Attrs: alwaysinline nounwind uwtable
define internal ptr @tsd_thread_allocatedp_get_unsafe(ptr noundef %0) #2 {
  %2 = alloca ptr, align 8
  store ptr %0, ptr %2, align 8, !tbaa !3
  %3 = load ptr, ptr %2, align 8, !tbaa !3
  %4 = getelementptr inbounds nuw %struct.tsd_s, ptr %3, i32 0, i32 31
  ret ptr %4
}

; Function Attrs: alwaysinline nounwind uwtable
define internal i32 @atomic_enum_to_builtin(i32 noundef %0) #2 {
  %2 = alloca i32, align 4
  %3 = alloca i32, align 4
  store i32 %0, ptr %3, align 4, !tbaa !24
  %4 = load i32, ptr %3, align 4, !tbaa !24
  switch i32 %4, label %10 [
    i32 0, label %5
    i32 1, label %6
    i32 2, label %7
    i32 3, label %8
    i32 4, label %9
  ]

5:                                                ; preds = %1
  store i32 0, ptr %2, align 4
  br label %12

6:                                                ; preds = %1
  store i32 2, ptr %2, align 4
  br label %12

7:                                                ; preds = %1
  store i32 3, ptr %2, align 4
  br label %12

8:                                                ; preds = %1
  store i32 4, ptr %2, align 4
  br label %12

9:                                                ; preds = %1
  store i32 5, ptr %2, align 4
  br label %12

10:                                               ; preds = %1
  br label %11

11:                                               ; preds = %10
  unreachable

12:                                               ; preds = %5, %6, %7, %8, %9
  %13 = load i32, ptr %2, align 4
  ret i32 %13
}

; Function Attrs: alwaysinline nounwind uwtable
define internal void @te_ctx_next_event_fast_set(ptr noundef %0, i64 noundef %1) #2 {
  %3 = alloca ptr, align 8
  %4 = alloca i64, align 8
  store ptr %0, ptr %3, align 8, !tbaa !8
  store i64 %1, ptr %4, align 8, !tbaa !21
  br label %5

5:                                                ; preds = %2
  br label %6

6:                                                ; preds = %5
  %7 = load i64, ptr %4, align 8, !tbaa !21
  %8 = load ptr, ptr %3, align 8, !tbaa !8
  %9 = getelementptr inbounds nuw %struct.te_ctx_s, ptr %8, i32 0, i32 4
  %10 = load ptr, ptr %9, align 8, !tbaa !20
  store i64 %7, ptr %10, align 8, !tbaa !21
  ret void
}

; Function Attrs: alwaysinline nounwind uwtable
define internal i64 @te_ctx_next_event_get(ptr noundef %0) #2 {
  %2 = alloca ptr, align 8
  store ptr %0, ptr %2, align 8, !tbaa !8
  %3 = load ptr, ptr %2, align 8, !tbaa !8
  %4 = getelementptr inbounds nuw %struct.te_ctx_s, ptr %3, i32 0, i32 3
  %5 = load ptr, ptr %4, align 8, !tbaa !19
  %6 = load i64, ptr %5, align 8, !tbaa !21
  ret i64 %6
}

; Function Attrs: alwaysinline nounwind uwtable
define internal ptr @tsd_thread_deallocated_next_event_fastp_get(ptr noundef %0) #2 {
  %2 = alloca ptr, align 8
  %3 = alloca i8, align 1
  store ptr %0, ptr %2, align 8, !tbaa !3
  call void @llvm.lifetime.start.p0(i64 1, ptr %3) #5
  %4 = load ptr, ptr %2, align 8, !tbaa !3
  %5 = call zeroext i8 @tsd_state_get(ptr noundef %4)
  store i8 %5, ptr %3, align 1, !tbaa !23
  br label %6

6:                                                ; preds = %1
  br label %7

7:                                                ; preds = %6
  br label %8

8:                                                ; preds = %7
  %9 = load ptr, ptr %2, align 8, !tbaa !3
  %10 = call ptr @tsd_thread_deallocated_next_event_fastp_get_unsafe(ptr noundef %9)
  call void @llvm.lifetime.end.p0(i64 1, ptr %3) #5
  ret ptr %10
}

; Function Attrs: alwaysinline nounwind uwtable
define internal ptr @tsd_thread_deallocated_next_eventp_get(ptr noundef %0) #2 {
  %2 = alloca ptr, align 8
  %3 = alloca i8, align 1
  store ptr %0, ptr %2, align 8, !tbaa !3
  call void @llvm.lifetime.start.p0(i64 1, ptr %3) #5
  %4 = load ptr, ptr %2, align 8, !tbaa !3
  %5 = call zeroext i8 @tsd_state_get(ptr noundef %4)
  store i8 %5, ptr %3, align 1, !tbaa !23
  br label %6

6:                                                ; preds = %1
  br label %7

7:                                                ; preds = %6
  br label %8

8:                                                ; preds = %7
  %9 = load ptr, ptr %2, align 8, !tbaa !3
  %10 = call ptr @tsd_thread_deallocated_next_eventp_get_unsafe(ptr noundef %9)
  call void @llvm.lifetime.end.p0(i64 1, ptr %3) #5
  ret ptr %10
}

; Function Attrs: alwaysinline nounwind uwtable
define internal ptr @tsd_thread_deallocated_last_eventp_get(ptr noundef %0) #2 {
  %2 = alloca ptr, align 8
  %3 = alloca i8, align 1
  store ptr %0, ptr %2, align 8, !tbaa !3
  call void @llvm.lifetime.start.p0(i64 1, ptr %3) #5
  %4 = load ptr, ptr %2, align 8, !tbaa !3
  %5 = call zeroext i8 @tsd_state_get(ptr noundef %4)
  store i8 %5, ptr %3, align 1, !tbaa !23
  br label %6

6:                                                ; preds = %1
  br label %7

7:                                                ; preds = %6
  br label %8

8:                                                ; preds = %7
  %9 = load ptr, ptr %2, align 8, !tbaa !3
  %10 = call ptr @tsd_thread_deallocated_last_eventp_get_unsafe(ptr noundef %9)
  call void @llvm.lifetime.end.p0(i64 1, ptr %3) #5
  ret ptr %10
}

; Function Attrs: alwaysinline nounwind uwtable
define internal ptr @tsd_thread_deallocatedp_get(ptr noundef %0) #2 {
  %2 = alloca ptr, align 8
  %3 = alloca i8, align 1
  store ptr %0, ptr %2, align 8, !tbaa !3
  call void @llvm.lifetime.start.p0(i64 1, ptr %3) #5
  %4 = load ptr, ptr %2, align 8, !tbaa !3
  %5 = call zeroext i8 @tsd_state_get(ptr noundef %4)
  store i8 %5, ptr %3, align 1, !tbaa !23
  br label %6

6:                                                ; preds = %1
  br label %7

7:                                                ; preds = %6
  br label %8

8:                                                ; preds = %7
  %9 = load ptr, ptr %2, align 8, !tbaa !3
  %10 = call ptr @tsd_thread_deallocatedp_get_unsafe(ptr noundef %9)
  call void @llvm.lifetime.end.p0(i64 1, ptr %3) #5
  ret ptr %10
}

; Function Attrs: alwaysinline nounwind uwtable
define internal ptr @tsd_thread_allocated_next_event_fastp_get(ptr noundef %0) #2 {
  %2 = alloca ptr, align 8
  %3 = alloca i8, align 1
  store ptr %0, ptr %2, align 8, !tbaa !3
  call void @llvm.lifetime.start.p0(i64 1, ptr %3) #5
  %4 = load ptr, ptr %2, align 8, !tbaa !3
  %5 = call zeroext i8 @tsd_state_get(ptr noundef %4)
  store i8 %5, ptr %3, align 1, !tbaa !23
  br label %6

6:                                                ; preds = %1
  br label %7

7:                                                ; preds = %6
  br label %8

8:                                                ; preds = %7
  %9 = load ptr, ptr %2, align 8, !tbaa !3
  %10 = call ptr @tsd_thread_allocated_next_event_fastp_get_unsafe(ptr noundef %9)
  call void @llvm.lifetime.end.p0(i64 1, ptr %3) #5
  ret ptr %10
}

; Function Attrs: alwaysinline nounwind uwtable
define internal ptr @tsd_thread_allocated_next_eventp_get(ptr noundef %0) #2 {
  %2 = alloca ptr, align 8
  %3 = alloca i8, align 1
  store ptr %0, ptr %2, align 8, !tbaa !3
  call void @llvm.lifetime.start.p0(i64 1, ptr %3) #5
  %4 = load ptr, ptr %2, align 8, !tbaa !3
  %5 = call zeroext i8 @tsd_state_get(ptr noundef %4)
  store i8 %5, ptr %3, align 1, !tbaa !23
  br label %6

6:                                                ; preds = %1
  br label %7

7:                                                ; preds = %6
  br label %8

8:                                                ; preds = %7
  %9 = load ptr, ptr %2, align 8, !tbaa !3
  %10 = call ptr @tsd_thread_allocated_next_eventp_get_unsafe(ptr noundef %9)
  call void @llvm.lifetime.end.p0(i64 1, ptr %3) #5
  ret ptr %10
}

; Function Attrs: alwaysinline nounwind uwtable
define internal ptr @tsd_thread_allocated_last_eventp_get(ptr noundef %0) #2 {
  %2 = alloca ptr, align 8
  %3 = alloca i8, align 1
  store ptr %0, ptr %2, align 8, !tbaa !3
  call void @llvm.lifetime.start.p0(i64 1, ptr %3) #5
  %4 = load ptr, ptr %2, align 8, !tbaa !3
  %5 = call zeroext i8 @tsd_state_get(ptr noundef %4)
  store i8 %5, ptr %3, align 1, !tbaa !23
  br label %6

6:                                                ; preds = %1
  br label %7

7:                                                ; preds = %6
  br label %8

8:                                                ; preds = %7
  %9 = load ptr, ptr %2, align 8, !tbaa !3
  %10 = call ptr @tsd_thread_allocated_last_eventp_get_unsafe(ptr noundef %9)
  call void @llvm.lifetime.end.p0(i64 1, ptr %3) #5
  ret ptr %10
}

; Function Attrs: alwaysinline nounwind uwtable
define internal ptr @tsd_thread_allocatedp_get(ptr noundef %0) #2 {
  %2 = alloca ptr, align 8
  %3 = alloca i8, align 1
  store ptr %0, ptr %2, align 8, !tbaa !3
  call void @llvm.lifetime.start.p0(i64 1, ptr %3) #5
  %4 = load ptr, ptr %2, align 8, !tbaa !3
  %5 = call zeroext i8 @tsd_state_get(ptr noundef %4)
  store i8 %5, ptr %3, align 1, !tbaa !23
  br label %6

6:                                                ; preds = %1
  br label %7

7:                                                ; preds = %6
  br label %8

8:                                                ; preds = %7
  %9 = load ptr, ptr %2, align 8, !tbaa !3
  %10 = call ptr @tsd_thread_allocatedp_get_unsafe(ptr noundef %9)
  call void @llvm.lifetime.end.p0(i64 1, ptr %3) #5
  ret ptr %10
}

; Function Attrs: alwaysinline nounwind uwtable
define internal ptr @tsd_thread_deallocated_next_event_fastp_get_unsafe(ptr noundef %0) #2 {
  %2 = alloca ptr, align 8
  store ptr %0, ptr %2, align 8, !tbaa !3
  %3 = load ptr, ptr %2, align 8, !tbaa !3
  %4 = getelementptr inbounds nuw %struct.tsd_s, ptr %3, i32 0, i32 34
  ret ptr %4
}

; Function Attrs: alwaysinline nounwind uwtable
define internal ptr @tsd_thread_allocated_next_event_fastp_get_unsafe(ptr noundef %0) #2 {
  %2 = alloca ptr, align 8
  store ptr %0, ptr %2, align 8, !tbaa !3
  %3 = load ptr, ptr %2, align 8, !tbaa !3
  %4 = getelementptr inbounds nuw %struct.tsd_s, ptr %3, i32 0, i32 32
  ret ptr %4
}

; Function Attrs: alwaysinline nounwind uwtable
define internal void @atomic_fence(i32 noundef %0) #2 {
  %2 = alloca i32, align 4
  store i32 %0, ptr %2, align 4, !tbaa !24
  %3 = load i32, ptr %2, align 4, !tbaa !24
  %4 = call i32 @atomic_enum_to_builtin(i32 noundef %3)
  switch i32 %4, label %9 [
    i32 1, label %5
    i32 2, label %5
    i32 3, label %6
    i32 4, label %7
    i32 5, label %8
  ]

5:                                                ; preds = %1, %1
  fence acquire
  br label %9

6:                                                ; preds = %1
  fence release
  br label %9

7:                                                ; preds = %1
  fence acq_rel
  br label %9

8:                                                ; preds = %1
  fence seq_cst
  br label %9

9:                                                ; preds = %8, %7, %6, %5, %1
  ret void
}

; Function Attrs: nounwind uwtable
define internal void @te_ctx_next_event_fast_update(ptr noundef %0) #0 {
  %2 = alloca ptr, align 8
  %3 = alloca i64, align 8
  %4 = alloca i64, align 8
  store ptr %0, ptr %2, align 8, !tbaa !8
  call void @llvm.lifetime.start.p0(i64 8, ptr %3) #5
  %5 = load ptr, ptr %2, align 8, !tbaa !8
  %6 = call i64 @te_ctx_next_event_get(ptr noundef %5)
  store i64 %6, ptr %3, align 8, !tbaa !21
  call void @llvm.lifetime.start.p0(i64 8, ptr %4) #5
  %7 = load i64, ptr %3, align 8, !tbaa !21
  %8 = icmp ule i64 %7, -4096
  br i1 %8, label %9, label %11

9:                                                ; preds = %1
  %10 = load i64, ptr %3, align 8, !tbaa !21
  br label %12

11:                                               ; preds = %1
  br label %12

12:                                               ; preds = %11, %9
  %13 = phi i64 [ %10, %9 ], [ 0, %11 ]
  store i64 %13, ptr %4, align 8, !tbaa !21
  %14 = load ptr, ptr %2, align 8, !tbaa !8
  %15 = load i64, ptr %4, align 8, !tbaa !21
  call void @te_ctx_next_event_fast_set(ptr noundef %14, i64 noundef %15)
  call void @llvm.lifetime.end.p0(i64 8, ptr %4) #5
  call void @llvm.lifetime.end.p0(i64 8, ptr %3) #5
  ret void
}

; Function Attrs: alwaysinline nounwind uwtable
define internal void @te_ctx_get(ptr noundef %0, ptr noundef %1, i1 noundef zeroext %2) #2 {
  %4 = alloca ptr, align 8
  %5 = alloca ptr, align 8
  %6 = alloca i8, align 1
  store ptr %0, ptr %4, align 8, !tbaa !3
  store ptr %1, ptr %5, align 8, !tbaa !8
  %7 = zext i1 %2 to i8
  store i8 %7, ptr %6, align 1, !tbaa !10
  %8 = load i8, ptr %6, align 1, !tbaa !10, !range !12, !noundef !13
  %9 = trunc i8 %8 to i1
  %10 = load ptr, ptr %5, align 8, !tbaa !8
  %11 = getelementptr inbounds nuw %struct.te_ctx_s, ptr %10, i32 0, i32 0
  %12 = zext i1 %9 to i8
  store i8 %12, ptr %11, align 8, !tbaa !14
  %13 = load i8, ptr %6, align 1, !tbaa !10, !range !12, !noundef !13
  %14 = trunc i8 %13 to i1
  br i1 %14, label %15, label %32

15:                                               ; preds = %3
  %16 = load ptr, ptr %4, align 8, !tbaa !3
  %17 = call ptr @tsd_thread_allocatedp_get(ptr noundef %16)
  %18 = load ptr, ptr %5, align 8, !tbaa !8
  %19 = getelementptr inbounds nuw %struct.te_ctx_s, ptr %18, i32 0, i32 1
  store ptr %17, ptr %19, align 8, !tbaa !17
  %20 = load ptr, ptr %4, align 8, !tbaa !3
  %21 = call ptr @tsd_thread_allocated_last_eventp_get(ptr noundef %20)
  %22 = load ptr, ptr %5, align 8, !tbaa !8
  %23 = getelementptr inbounds nuw %struct.te_ctx_s, ptr %22, i32 0, i32 2
  store ptr %21, ptr %23, align 8, !tbaa !18
  %24 = load ptr, ptr %4, align 8, !tbaa !3
  %25 = call ptr @tsd_thread_allocated_next_eventp_get(ptr noundef %24)
  %26 = load ptr, ptr %5, align 8, !tbaa !8
  %27 = getelementptr inbounds nuw %struct.te_ctx_s, ptr %26, i32 0, i32 3
  store ptr %25, ptr %27, align 8, !tbaa !19
  %28 = load ptr, ptr %4, align 8, !tbaa !3
  %29 = call ptr @tsd_thread_allocated_next_event_fastp_get(ptr noundef %28)
  %30 = load ptr, ptr %5, align 8, !tbaa !8
  %31 = getelementptr inbounds nuw %struct.te_ctx_s, ptr %30, i32 0, i32 4
  store ptr %29, ptr %31, align 8, !tbaa !20
  br label %49

32:                                               ; preds = %3
  %33 = load ptr, ptr %4, align 8, !tbaa !3
  %34 = call ptr @tsd_thread_deallocatedp_get(ptr noundef %33)
  %35 = load ptr, ptr %5, align 8, !tbaa !8
  %36 = getelementptr inbounds nuw %struct.te_ctx_s, ptr %35, i32 0, i32 1
  store ptr %34, ptr %36, align 8, !tbaa !17
  %37 = load ptr, ptr %4, align 8, !tbaa !3
  %38 = call ptr @tsd_thread_deallocated_last_eventp_get(ptr noundef %37)
  %39 = load ptr, ptr %5, align 8, !tbaa !8
  %40 = getelementptr inbounds nuw %struct.te_ctx_s, ptr %39, i32 0, i32 2
  store ptr %38, ptr %40, align 8, !tbaa !18
  %41 = load ptr, ptr %4, align 8, !tbaa !3
  %42 = call ptr @tsd_thread_deallocated_next_eventp_get(ptr noundef %41)
  %43 = load ptr, ptr %5, align 8, !tbaa !8
  %44 = getelementptr inbounds nuw %struct.te_ctx_s, ptr %43, i32 0, i32 3
  store ptr %42, ptr %44, align 8, !tbaa !19
  %45 = load ptr, ptr %4, align 8, !tbaa !3
  %46 = call ptr @tsd_thread_deallocated_next_event_fastp_get(ptr noundef %45)
  %47 = load ptr, ptr %5, align 8, !tbaa !8
  %48 = getelementptr inbounds nuw %struct.te_ctx_s, ptr %47, i32 0, i32 4
  store ptr %46, ptr %48, align 8, !tbaa !20
  br label %49

49:                                               ; preds = %32, %15
  ret void
}

; Function Attrs: alwaysinline nounwind uwtable
define internal void @te_next_event_fast_set_non_nominal(ptr noundef %0) #2 {
  %2 = alloca ptr, align 8
  store ptr %0, ptr %2, align 8, !tbaa !3
  %3 = load ptr, ptr %2, align 8, !tbaa !3
  %4 = call ptr @tsd_thread_allocated_next_event_fastp_get_unsafe(ptr noundef %3)
  store i64 0, ptr %4, align 8, !tbaa !21
  %5 = load ptr, ptr %2, align 8, !tbaa !3
  %6 = call ptr @tsd_thread_deallocated_next_event_fastp_get_unsafe(ptr noundef %5)
  store i64 0, ptr %6, align 8, !tbaa !21
  ret void
}

; Function Attrs: alwaysinline nounwind uwtable
define internal zeroext i8 @tsd_state_get(ptr noundef %0) #2 {
  %2 = alloca ptr, align 8
  store ptr %0, ptr %2, align 8, !tbaa !3
  %3 = load ptr, ptr %2, align 8, !tbaa !3
  %4 = getelementptr inbounds nuw %struct.tsd_s, ptr %3, i32 0, i32 30
  %5 = load i8, ptr %4, align 8, !tbaa !23
  ret i8 %5
}

; Function Attrs: nounwind uwtable
define void @duckdb_je_te_recompute_fast_threshold(ptr noundef %0) #0 {
  %2 = alloca ptr, align 8
  %3 = alloca %struct.te_ctx_s, align 8
  store ptr %0, ptr %2, align 8, !tbaa !3
  %4 = load ptr, ptr %2, align 8, !tbaa !3
  %5 = call zeroext i8 @tsd_state_get(ptr noundef %4)
  %6 = zext i8 %5 to i32
  %7 = icmp ne i32 %6, 0
  br i1 %7, label %8, label %10

8:                                                ; preds = %1
  %9 = load ptr, ptr %2, align 8, !tbaa !3
  call void @te_next_event_fast_set_non_nominal(ptr noundef %9)
  br label %20

10:                                               ; preds = %1
  call void @llvm.lifetime.start.p0(i64 40, ptr %3) #5
  %11 = load ptr, ptr %2, align 8, !tbaa !3
  call void @te_ctx_get(ptr noundef %11, ptr noundef %3, i1 noundef zeroext true)
  call void @te_ctx_next_event_fast_update(ptr noundef %3)
  %12 = load ptr, ptr %2, align 8, !tbaa !3
  call void @te_ctx_get(ptr noundef %12, ptr noundef %3, i1 noundef zeroext false)
  call void @te_ctx_next_event_fast_update(ptr noundef %3)
  call void @atomic_fence(i32 noundef 4)
  %13 = load ptr, ptr %2, align 8, !tbaa !3
  %14 = call zeroext i8 @tsd_state_get(ptr noundef %13)
  %15 = zext i8 %14 to i32
  %16 = icmp ne i32 %15, 0
  br i1 %16, label %17, label %19

17:                                               ; preds = %10
  %18 = load ptr, ptr %2, align 8, !tbaa !3
  call void @te_next_event_fast_set_non_nominal(ptr noundef %18)
  br label %19

19:                                               ; preds = %17, %10
  call void @llvm.lifetime.end.p0(i64 40, ptr %3) #5
  br label %20

20:                                               ; preds = %19, %8
  ret void
}