; Function Attrs: mustprogress nofree norecurse nounwind willreturn uwtable
define void @duckdb_je_te_recompute_fast_threshold(ptr noundef captures(none) initializes((840, 848), (856, 864)) %0) local_unnamed_addr #1 {
  %2 = getelementptr inbounds nuw i8, ptr %0, i64 824
  %3 = load i8, ptr %2, align 8, !tbaa !3
  %.not = icmp eq i8 %3, 0
  br i1 %.not, label %7, label %4

4:                                                ; preds = %1
  %5 = getelementptr inbounds nuw i8, ptr %0, i64 840
  store i64 0, ptr %5, align 8, !tbaa !6
  %6 = getelementptr inbounds nuw i8, ptr %0, i64 856
  store i64 0, ptr %6, align 8, !tbaa !6
  br label %18

7:                                                ; preds = %1
  %8 = getelementptr inbounds nuw i8, ptr %0, i64 16
  %9 = getelementptr inbounds nuw i8, ptr %0, i64 840
  %.val.val = load i64, ptr %8, align 8, !tbaa !6
  %10 = icmp ult i64 %.val.val, -4095
  %11 = select i1 %10, i64 %.val.val, i64 0
  store i64 %11, ptr %9, align 8, !tbaa !6
  %12 = getelementptr inbounds nuw i8, ptr %0, i64 32
  %13 = getelementptr inbounds nuw i8, ptr %0, i64 856
  %.val8.val = load i64, ptr %12, align 8, !tbaa !6
  %14 = icmp ult i64 %.val8.val, -4095
  %15 = select i1 %14, i64 %.val8.val, i64 0
  store i64 %15, ptr %13, align 8, !tbaa !6
  fence seq_cst
  %16 = load i8, ptr %2, align 8, !tbaa !3
  %.not6 = icmp eq i8 %16, 0
  br i1 %.not6, label %18, label %17

17:                                               ; preds = %7
  store i64 0, ptr %9, align 8, !tbaa !6
  store i64 0, ptr %13, align 8, !tbaa !6
  br label %18

18:                                               ; preds = %7, %17, %4
  ret void
}